target datalayout = "e-m:e-p270:32:32-p271:32:32-p272:64:64-i64:64-i128:128-f80:128-n8:16:32:64-S128"
target triple = "x86_64-pc-linux-gnu"

%struct.mbedtls_mpi = type { i32, i64, ptr }

; Function Attrs: mustprogress nounwind uwtable
define hidden i64 @mbedtls_mpi_lsb(ptr noundef %0) #0 {
  %2 = alloca i64, align 8
  %3 = alloca ptr, align 8
  %4 = alloca i64, align 8
  %5 = alloca i64, align 8
  %6 = alloca i64, align 8
  %7 = alloca i32, align 4
  store ptr %0, ptr %3, align 8, !tbaa !3
  call void @llvm.lifetime.start.p0(i64 8, ptr %4) #10
  call void @llvm.lifetime.start.p0(i64 8, ptr %5) #10
  call void @llvm.lifetime.start.p0(i64 8, ptr %6) #10
  store i64 0, ptr %6, align 8, !tbaa !16
  br label %8

8:                                                ; preds = %1
  br label %9

9:                                                ; preds = %8
  br label %10

10:                                               ; preds = %9
  store i64 0, ptr %4, align 8, !tbaa !16
  br label %11

11:                                               ; preds = %41, %10
  %12 = load i64, ptr %4, align 8, !tbaa !16
  %13 = load ptr, ptr %3, align 8, !tbaa !3
  %14 = getelementptr inbounds nuw %struct.mbedtls_mpi, ptr %13, i32 0, i32 1
  %15 = load i64, ptr %14, align 8, !tbaa !13
  %16 = icmp ult i64 %12, %15
  br i1 %16, label %17, label %44

17:                                               ; preds = %11
  store i64 0, ptr %5, align 8, !tbaa !16
  br label %18

18:                                               ; preds = %35, %17
  %19 = load i64, ptr %5, align 8, !tbaa !16
  %20 = icmp ult i64 %19, 64
  br i1 %20, label %21, label %40

21:                                               ; preds = %18
  %22 = load ptr, ptr %3, align 8, !tbaa !3
  %23 = getelementptr inbounds nuw %struct.mbedtls_mpi, ptr %22, i32 0, i32 2
  %24 = load ptr, ptr %23, align 8, !tbaa !14
  %25 = load i64, ptr %4, align 8, !tbaa !16
  %26 = getelementptr inbounds nuw i64, ptr %24, i64 %25
  %27 = load i64, ptr %26, align 8, !tbaa !16
  %28 = load i64, ptr %5, align 8, !tbaa !16
  %29 = lshr i64 %27, %28
  %30 = and i64 %29, 1
  %31 = icmp ne i64 %30, 0
  br i1 %31, label %32, label %34

32:                                               ; preds = %21
  %33 = load i64, ptr %6, align 8, !tbaa !16
  store i64 %33, ptr %2, align 8
  store i32 1, ptr %7, align 4
  br label %45

34:                                               ; preds = %21
  br label %35

35:                                               ; preds = %34
  %36 = load i64, ptr %5, align 8, !tbaa !16
  %37 = add i64 %36, 1
  store i64 %37, ptr %5, align 8, !tbaa !16
  %38 = load i64, ptr %6, align 8, !tbaa !16
  %39 = add i64 %38, 1
  store i64 %39, ptr %6, align 8, !tbaa !16
  br label %18, !llvm.loop !22

40:                                               ; preds = %18
  br label %41

41:                                               ; preds = %40
  %42 = load i64, ptr %4, align 8, !tbaa !16
  %43 = add i64 %42, 1
  store i64 %43, ptr %4, align 8, !tbaa !16
  br label %11, !llvm.loop !23

44:                                               ; preds = %11
  store i64 0, ptr %2, align 8
  store i32 1, ptr %7, align 4
  br label %45

45:                                               ; preds = %44, %32
  call void @llvm.lifetime.end.p0(i64 8, ptr %6) #10
  call void @llvm.lifetime.end.p0(i64 8, ptr %5) #10
  call void @llvm.lifetime.end.p0(i64 8, ptr %4) #10
  %46 = load i64, ptr %2, align 8
  ret i64 %46
}