; Function Attrs: mustprogress nofree norecurse nosync nounwind willreturn memory(read, inaccessiblemem: none) uwtable
define hidden i64 @mbedtls_mpi_lsb(ptr noundef readonly captures(none) %0) local_unnamed_addr #8 {
  %2 = getelementptr inbounds nuw i8, ptr %0, i64 8
  %3 = load i64, ptr %2, align 8, !tbaa !12
  %.not19 = icmp eq i64 %3, 0
  br i1 %.not19, label %.loopexit, label %.preheader.lr.ph

.preheader.lr.ph:                                 ; preds = %1
  %4 = getelementptr inbounds nuw i8, ptr %0, i64 16
  %5 = load ptr, ptr %4, align 8, !tbaa !11
  br label %.preheader

.preheader:                                       ; preds = %.preheader.lr.ph, %15
  %.018 = phi i64 [ 0, %.preheader.lr.ph ], [ %8, %15 ]
  %.01117 = phi i64 [ 0, %.preheader.lr.ph ], [ %16, %15 ]
  %6 = getelementptr inbounds nuw i64, ptr %5, i64 %.01117
  %7 = load i64, ptr %6, align 8, !tbaa !13
  %8 = add i64 %.018, 64
  br label %9

9:                                                ; preds = %.preheader, %12
  %.116 = phi i64 [ %.018, %.preheader ], [ %14, %12 ]
  %.01015 = phi i64 [ 0, %.preheader ], [ %13, %12 ]
  %10 = shl nuw i64 1, %.01015
  %11 = and i64 %7, %10
  %.not = icmp eq i64 %11, 0
  br i1 %.not, label %12, label %.loopexit

12:                                               ; preds = %9
  %13 = add nuw nsw i64 %.01015, 1
  %14 = add i64 %.116, 1
  %exitcond.not = icmp eq i64 %13, 64
  br i1 %exitcond.not, label %15, label %9, !llvm.loop !17

15:                                               ; preds = %12
  %16 = add nuw i64 %.01117, 1
  %exitcond22.not = icmp eq i64 %16, %3
  br i1 %exitcond22.not, label %.loopexit, label %.preheader, !llvm.loop !18

.loopexit:                                        ; preds = %15, %9, %1
  %.012 = phi i64 [ 0, %1 ], [ %.116, %9 ], [ 0, %15 ]
  ret i64 %.012
}